target datalayout = "e-m:e-p270:32:32-p271:32:32-p272:64:64-i64:64-i128:128-f80:128-n8:16:32:64-S128"
target triple = "x86_64-pc-linux-gnu"

%struct.FxuHeapDouble = type { ptr, i32, i32, i32 }

; Function Attrs: nounwind uwtable
define ptr @Fxu_HeapDoubleReadMax(ptr noundef %0) #0 {
  %2 = alloca ptr, align 8
  %3 = alloca ptr, align 8
  store ptr %0, ptr %3, align 8, !tbaa !3
  %4 = load ptr, ptr %3, align 8, !tbaa !3
  %5 = getelementptr inbounds nuw %struct.FxuHeapDouble, ptr %4, i32 0, i32 1
  %6 = load i32, ptr %5, align 8, !tbaa !8
  %7 = icmp eq i32 %6, 0
  br i1 %7, label %8, label %9

8:                                                ; preds = %1
  store ptr null, ptr %2, align 8
  br label %15

9:                                                ; preds = %1
  %10 = load ptr, ptr %3, align 8, !tbaa !3
  %11 = getelementptr inbounds nuw %struct.FxuHeapDouble, ptr %10, i32 0, i32 0
  %12 = load ptr, ptr %11, align 8, !tbaa !13
  %13 = getelementptr inbounds ptr, ptr %12, i64 1
  %14 = load ptr, ptr %13, align 8, !tbaa !14
  store ptr %14, ptr %2, align 8
  br label %15

15:                                               ; preds = %9, %8
  %16 = load ptr, ptr %2, align 8
  ret ptr %16
}